; Function Attrs: mustprogress nounwind uwtable
define internal fastcc void @_ZSt8_DestroyIPN12_GLOBAL__N_111SimInstance13print_state_tEEvT_S4_(ptr noundef %0, ptr noundef readnone %1) unnamed_addr #3 personality ptr @__gxx_personality_v0 {
  %.not4.i = icmp eq ptr %0, %1
  br i1 %.not4.i, label %_ZNSt12_Destroy_auxILb0EE9__destroyIPN12_GLOBAL__N_111SimInstance13print_state_tEEEvT_S6_.exit, label %.lr.ph.i

.lr.ph.i:                                         ; preds = %2, %_ZSt8_DestroyIN12_GLOBAL__N_111SimInstance13print_state_tEEvPT_.exit.i
  %.05.i = phi ptr [ %13, %_ZSt8_DestroyIN12_GLOBAL__N_111SimInstance13print_state_tEEvPT_.exit.i ], [ %0, %2 ]
  %3 = getelementptr inbounds i8, ptr %.05.i, i64 112
  tail call void @_ZNSt6vectorIN5Yosys7FmtPartESaIS1_EED2Ev(ptr noundef nonnull align 8 dereferenceable(24) %3) #31
  %4 = getelementptr inbounds i8, ptr %.05.i, i64 80
  %5 = load ptr, ptr %4, align 8
  %.not.i.i.i.i.i.i.i = icmp eq ptr %5, null
  br i1 %.not.i.i.i.i.i.i.i, label %_ZN5Yosys5RTLIL5ConstD2Ev.exit.i.i.i, label %6

6:                                                ; preds = %.lr.ph.i
  tail call void @_ZdlPv(ptr noundef nonnull %5) #32
  br label %_ZN5Yosys5RTLIL5ConstD2Ev.exit.i.i.i

_ZN5Yosys5RTLIL5ConstD2Ev.exit.i.i.i:             ; preds = %6, %.lr.ph.i
  %7 = getelementptr inbounds i8, ptr %.05.i, i64 48
  %8 = load ptr, ptr %7, align 8
  %.not.i.i.i.i1.i.i.i = icmp eq ptr %8, null
  br i1 %.not.i.i.i.i1.i.i.i, label %_ZN5Yosys5RTLIL5ConstD2Ev.exit2.i.i.i, label %9

9:                                                ; preds = %_ZN5Yosys5RTLIL5ConstD2Ev.exit.i.i.i
  tail call void @_ZdlPv(ptr noundef nonnull %8) #32
  br label %_ZN5Yosys5RTLIL5ConstD2Ev.exit2.i.i.i

_ZN5Yosys5RTLIL5ConstD2Ev.exit2.i.i.i:            ; preds = %9, %_ZN5Yosys5RTLIL5ConstD2Ev.exit.i.i.i
  %10 = getelementptr inbounds i8, ptr %.05.i, i64 16
  %11 = load ptr, ptr %10, align 8
  %.not.i.i.i.i3.i.i.i = icmp eq ptr %11, null
  br i1 %.not.i.i.i.i3.i.i.i, label %_ZSt8_DestroyIN12_GLOBAL__N_111SimInstance13print_state_tEEvPT_.exit.i, label %12

12:                                               ; preds = %_ZN5Yosys5RTLIL5ConstD2Ev.exit2.i.i.i
  tail call void @_ZdlPv(ptr noundef nonnull %11) #32
  br label %_ZSt8_DestroyIN12_GLOBAL__N_111SimInstance13print_state_tEEvPT_.exit.i

_ZSt8_DestroyIN12_GLOBAL__N_111SimInstance13print_state_tEEvPT_.exit.i: ; preds = %12, %_ZN5Yosys5RTLIL5ConstD2Ev.exit2.i.i.i
  %13 = getelementptr inbounds i8, ptr %.05.i, i64 136
  %.not.i = icmp eq ptr %13, %1
  br i1 %.not.i, label %_ZNSt12_Destroy_auxILb0EE9__destroyIPN12_GLOBAL__N_111SimInstance13print_state_tEEEvT_S6_.exit, label %.lr.ph.i, !llvm.loop !376

_ZNSt12_Destroy_auxILb0EE9__destroyIPN12_GLOBAL__N_111SimInstance13print_state_tEEEvT_S6_.exit: ; preds = %_ZSt8_DestroyIN12_GLOBAL__N_111SimInstance13print_state_tEEvPT_.exit.i, %2
  ret void
}